target datalayout = "e-m:e-p270:32:32-p271:32:32-p272:64:64-i64:64-i128:128-f80:128-n8:16:32:64-S128"
target triple = "x86_64-pc-linux-gnu"

@.str.26 = private unnamed_addr constant [28 x i8] c"buffer access out of bounds\00", align 1

; Function Attrs: mustprogress uwtable
define internal noundef i32 @_ZL11buffer_fillP9lua_State(ptr noundef %0) #0 {
  %2 = alloca ptr, align 8
  %3 = alloca i64, align 8
  %4 = alloca ptr, align 8
  %5 = alloca i32, align 4
  %6 = alloca i32, align 4
  %7 = alloca i32, align 4
  store ptr %0, ptr %2, align 8
  store i64 0, ptr %3, align 8
  %8 = load ptr, ptr %2, align 8
  %9 = call noundef ptr @_Z16luaL_checkbufferP9lua_StateiPm(ptr noundef %8, i32 noundef 1, ptr noundef %3)
  store ptr %9, ptr %4, align 8
  %10 = load ptr, ptr %2, align 8
  %11 = call noundef i32 @_Z17luaL_checkintegerP9lua_Statei(ptr noundef %10, i32 noundef 2)
  store i32 %11, ptr %5, align 4
  %12 = load ptr, ptr %2, align 8
  %13 = call noundef i32 @_Z18luaL_checkunsignedP9lua_Statei(ptr noundef %12, i32 noundef 3)
  store i32 %13, ptr %6, align 4
  %14 = load ptr, ptr %2, align 8
  %15 = load i64, ptr %3, align 8
  %16 = trunc i64 %15 to i32
  %17 = load i32, ptr %5, align 4
  %18 = sub nsw i32 %16, %17
  %19 = call noundef i32 @_Z15luaL_optintegerP9lua_Stateii(ptr noundef %14, i32 noundef 4, i32 noundef %18)
  store i32 %19, ptr %7, align 4
  %20 = load i32, ptr %7, align 4
  %21 = icmp slt i32 %20, 0
  br i1 %21, label %22, label %24

22:                                               ; preds = %1
  %23 = load ptr, ptr %2, align 8
  call void (ptr, ptr, ...) @_Z11luaL_errorLP9lua_StatePKcz(ptr noundef %23, ptr noundef @.str.26) #5
  unreachable

24:                                               ; preds = %1
  %25 = load i32, ptr %5, align 4
  %26 = zext i32 %25 to i64
  %27 = load i32, ptr %7, align 4
  %28 = zext i32 %27 to i64
  %29 = add i64 %26, %28
  %30 = load i64, ptr %3, align 8
  %31 = icmp ugt i64 %29, %30
  br i1 %31, label %32, label %34

32:                                               ; preds = %24
  %33 = load ptr, ptr %2, align 8
  call void (ptr, ptr, ...) @_Z11luaL_errorLP9lua_StatePKcz(ptr noundef %33, ptr noundef @.str.26) #5
  unreachable

34:                                               ; preds = %24
  %35 = load ptr, ptr %4, align 8
  %36 = load i32, ptr %5, align 4
  %37 = sext i32 %36 to i64
  %38 = getelementptr inbounds i8, ptr %35, i64 %37
  %39 = load i32, ptr %6, align 4
  %40 = and i32 %39, 255
  %41 = trunc i32 %40 to i8
  %42 = load i32, ptr %7, align 4
  %43 = sext i32 %42 to i64
  call void @llvm.memset.p0.i64(ptr align 1 %38, i8 %41, i64 %43, i1 false)
  ret i32 0
}