; Function Attrs: mustprogress uwtable
define internal noundef i32 @_ZL11buffer_fillP9lua_State(ptr noundef %0) #0 {
  %2 = alloca i64, align 8
  store i64 0, ptr %2, align 8
  %3 = call noundef ptr @_Z16luaL_checkbufferP9lua_StateiPm(ptr noundef %0, i32 noundef 1, ptr noundef nonnull %2)
  %4 = call noundef i32 @_Z17luaL_checkintegerP9lua_Statei(ptr noundef %0, i32 noundef 2)
  %5 = call noundef i32 @_Z18luaL_checkunsignedP9lua_Statei(ptr noundef %0, i32 noundef 3)
  %6 = load i64, ptr %2, align 8
  %7 = trunc i64 %6 to i32
  %8 = sub nsw i32 %7, %4
  %9 = call noundef i32 @_Z15luaL_optintegerP9lua_Stateii(ptr noundef %0, i32 noundef 4, i32 noundef %8)
  %10 = icmp slt i32 %9, 0
  br i1 %10, label %11, label %12

11:                                               ; preds = %1
  call void (ptr, ptr, ...) @_Z11luaL_errorLP9lua_StatePKcz(ptr noundef %0, ptr noundef nonnull @.str.26) #5
  unreachable

12:                                               ; preds = %1
  %13 = zext i32 %4 to i64
  %14 = zext nneg i32 %9 to i64
  %15 = add nuw nsw i64 %14, %13
  %16 = load i64, ptr %2, align 8
  %17 = icmp ugt i64 %15, %16
  br i1 %17, label %18, label %19

18:                                               ; preds = %12
  call void (ptr, ptr, ...) @_Z11luaL_errorLP9lua_StatePKcz(ptr noundef %0, ptr noundef nonnull @.str.26) #5
  unreachable

19:                                               ; preds = %12
  %20 = sext i32 %4 to i64
  %21 = getelementptr inbounds i8, ptr %3, i64 %20
  %22 = trunc i32 %5 to i8
  call void @llvm.memset.p0.i64(ptr align 1 %21, i8 %22, i64 %14, i1 false)
  ret i32 0
}